; Function Attrs: mustprogress nounwind uwtable
define hidden void @_ZN14MacroAssembler5xorpdE11XMMRegisterS0_(ptr noundef nonnull align 8 dereferenceable(40) %0, i32 %1, i32 %2) local_unnamed_addr #0 align 2 {
  %4 = load i32, ptr @UseAVX, align 4
  %5 = icmp sgt i32 %4, 2
  br i1 %5, label %6, label %20

6:                                                ; preds = %3
  %7 = load i64, ptr @_ZN19Abstract_VM_Version9_featuresE, align 8
  %8 = and i64 %7, 268435456
  %.not = icmp eq i64 %8, 0
  br i1 %.not, label %9, label %20

9:                                                ; preds = %6
  %10 = sext i32 %1 to i64
  %11 = getelementptr inbounds %"class.XMMRegister::XMMRegisterImpl", ptr getelementptr inbounds (i8, ptr @all_XMMRegisterImpls, i64 1), i64 %10
  %12 = ptrtoint ptr %11 to i64
  %13 = trunc i64 %12 to i32
  %14 = sext i32 %2 to i64
  %15 = getelementptr inbounds %"class.XMMRegister::XMMRegisterImpl", ptr getelementptr inbounds (i8, ptr @all_XMMRegisterImpls, i64 1), i64 %14
  %16 = ptrtoint ptr %15 to i64
  %17 = trunc i64 %16 to i32
  %18 = icmp eq i32 %13, %17
  br i1 %18, label %19, label %20

19:                                               ; preds = %9
  tail call void @_ZN9Assembler5vpxorE11XMMRegisterS0_S0_i(ptr noundef nonnull align 8 dereferenceable(40) %0, i32 %1, i32 %1, i32 %2, i32 noundef 2) #18
  br label %21

20:                                               ; preds = %9, %6, %3
  tail call void @_ZN9Assembler5xorpdE11XMMRegisterS0_(ptr noundef nonnull align 8 dereferenceable(40) %0, i32 %1, i32 %2) #18
  br label %21

21:                                               ; preds = %20, %19
  ret void
}